target datalayout = "e-m:e-p270:32:32-p271:32:32-p272:64:64-i64:64-i128:128-f80:128-n8:16:32:64-S128"
target triple = "x86_64-pc-linux-gnu"

%"class.std::__cxx11::basic_string" = type { %"struct.std::__cxx11::basic_string<char>::_Alloc_hider", i64, %union.anon }
%"struct.std::__cxx11::basic_string<char>::_Alloc_hider" = type { ptr }
%union.anon = type { i64, [8 x i8] }
%"class.std::allocator.0" = type { i8 }
%"class.cm::static_string_view" = type { %"class.std::basic_string_view" }
%"class.std::basic_string_view" = type { i64, ptr }
%"class.__gnu_cxx::__normal_iterator" = type { ptr }
%class.cmRange = type { %"class.__gnu_cxx::__normal_iterator", %"class.__gnu_cxx::__normal_iterator" }
%"struct.(anonymous namespace)::Args" = type { %class.cmRange }
%"class.std::optional.192" = type { %"struct.std::_Optional_base.193" }
%"struct.std::_Optional_base.193" = type { %"struct.std::_Optional_payload.195" }
%"struct.std::_Optional_payload.195" = type { %"struct.std::_Optional_payload_base.base.197", [7 x i8] }
%"struct.std::_Optional_payload_base.base.197" = type <{ %"union.std::_Optional_payload_base<(anonymous namespace)::Args>::_Storage", i8 }>
%"union.std::_Optional_payload_base<(anonymous namespace)::Args>::_Storage" = type { %"struct.(anonymous namespace)::Args" }
%"class.(anonymous namespace)::json_error" = type { %"class.std::runtime_error", %"class.std::optional.192" }
%"class.std::runtime_error" = type { %"class.std::exception", %"struct.std::__cow_string" }
%"class.std::exception" = type { ptr }
%"struct.std::__cow_string" = type { %union.anon.191 }
%union.anon.191 = type { ptr }
%"struct.std::_Optional_payload_base.196" = type <{ %"union.std::_Optional_payload_base<(anonymous namespace)::Args>::_Storage", i8, [7 x i8] }>

@_ZTIN12_GLOBAL__N_110json_errorE = internal constant { ptr, ptr, ptr } { ptr getelementptr inbounds (ptr, ptr @_ZTVN10__cxxabiv120__si_class_type_infoE, i64 2), ptr @_ZTSN12_GLOBAL__N_110json_errorE, ptr @_ZTISt13runtime_error }, align 8
@_ZTVN12_GLOBAL__N_110json_errorE = internal unnamed_addr constant { [5 x ptr] } { [5 x ptr] [ptr null, ptr @_ZTIN12_GLOBAL__N_110json_errorE, ptr @_ZN12_GLOBAL__N_110json_errorD2Ev, ptr @_ZN12_GLOBAL__N_110json_errorD0Ev, ptr @_ZNKSt13runtime_error4whatEv] }, align 8
@.str.158 = private unnamed_addr constant [5 x i8] c"NULL\00", align 1
@.str.159 = private unnamed_addr constant [7 x i8] c"NUMBER\00", align 1
@.str.160 = private unnamed_addr constant [7 x i8] c"STRING\00", align 1
@.str.161 = private unnamed_addr constant [8 x i8] c"BOOLEAN\00", align 1
@.str.162 = private unnamed_addr constant [6 x i8] c"ARRAY\00", align 1
@.str.163 = private unnamed_addr constant [7 x i8] c"OBJECT\00", align 1
@.str.164 = private unnamed_addr constant [24 x i8] c"invalid JSON type found\00", align 1

; Function Attrs: mustprogress nounwind uwtable
define internal void @_ZNSt22_Optional_payload_baseIN12_GLOBAL__N_14ArgsEE8_StorageIS1_Lb1EEC2Ev(ptr noundef nonnull align 8 dereferenceable(16) %0) unnamed_addr #5 align 2 {
  %2 = alloca ptr, align 8
  store ptr %0, ptr %2, align 8
  ret void
}

; Function Attrs: mustprogress nounwind uwtable
define internal void @_ZNSt22_Optional_payload_baseIN12_GLOBAL__N_14ArgsEEC2Ev(ptr noundef nonnull align 8 dereferenceable(17) %0) unnamed_addr #5 align 2 {
  %2 = alloca ptr, align 8
  store ptr %0, ptr %2, align 8
  %3 = load ptr, ptr %2, align 8
  %4 = getelementptr inbounds %"struct.std::_Optional_payload_base.196", ptr %3, i32 0, i32 0
  call void @_ZNSt22_Optional_payload_baseIN12_GLOBAL__N_14ArgsEE8_StorageIS1_Lb1EEC2Ev(ptr noundef nonnull align 8 dereferenceable(16) %4) #3
  %5 = getelementptr inbounds %"struct.std::_Optional_payload_base.196", ptr %3, i32 0, i32 1
  store i8 0, ptr %5, align 8
  ret void
}

; Function Attrs: mustprogress nounwind uwtable
define internal void @_ZNSt17_Optional_payloadIN12_GLOBAL__N_14ArgsELb1ELb1ELb1EEC2Ev(ptr noundef nonnull align 8 dereferenceable(17) %0) unnamed_addr #5 align 2 {
  %2 = alloca ptr, align 8
  store ptr %0, ptr %2, align 8
  %3 = load ptr, ptr %2, align 8
  call void @_ZNSt22_Optional_payload_baseIN12_GLOBAL__N_14ArgsEEC2Ev(ptr noundef nonnull align 8 dereferenceable(17) %3) #3
  ret void
}

; Function Attrs: mustprogress nounwind uwtable
define internal void @_ZNSt14_Optional_baseIN12_GLOBAL__N_14ArgsELb1ELb1EEC2Ev(ptr noundef nonnull align 8 dereferenceable(24) %0) unnamed_addr #5 align 2 {
  %2 = alloca ptr, align 8
  store ptr %0, ptr %2, align 8
  %3 = load ptr, ptr %2, align 8
  %4 = getelementptr inbounds %"struct.std::_Optional_base.193", ptr %3, i32 0, i32 0
  call void @_ZNSt17_Optional_payloadIN12_GLOBAL__N_14ArgsELb1ELb1ELb1EEC2Ev(ptr noundef nonnull align 8 dereferenceable(17) %4) #3
  ret void
}

; Function Attrs: mustprogress nounwind uwtable
define linkonce_odr dso_local void @_ZN2cm18static_string_viewC2ESt17basic_string_viewIcSt11char_traitsIcEE(ptr noundef nonnull align 8 dereferenceable(16) %0, i64 %1, ptr %2) unnamed_addr #5 comdat align 2 {
  %4 = alloca %"class.std::basic_string_view", align 8
  %5 = alloca ptr, align 8
  %6 = getelementptr inbounds { i64, ptr }, ptr %4, i32 0, i32 0
  store i64 %1, ptr %6, align 8
  %7 = getelementptr inbounds { i64, ptr }, ptr %4, i32 0, i32 1
  store ptr %2, ptr %7, align 8
  store ptr %0, ptr %5, align 8
  %8 = load ptr, ptr %5, align 8
  call void @llvm.memcpy.p0.p0.i64(ptr align 8 %8, ptr align 8 %4, i64 16, i1 false)
  ret void
}

; Function Attrs: mustprogress nounwind uwtable
define linkonce_odr dso_local void @_ZNSt17basic_string_viewIcSt11char_traitsIcEEC2EPKcm(ptr noundef nonnull align 8 dereferenceable(16) %0, ptr noundef %1, i64 noundef %2) unnamed_addr #5 comdat align 2 {
  %4 = alloca ptr, align 8
  %5 = alloca ptr, align 8
  %6 = alloca i64, align 8
  store ptr %0, ptr %4, align 8
  store ptr %1, ptr %5, align 8
  store i64 %2, ptr %6, align 8
  %7 = load ptr, ptr %4, align 8
  %8 = getelementptr inbounds %"class.std::basic_string_view", ptr %7, i32 0, i32 0
  %9 = load i64, ptr %6, align 8
  store i64 %9, ptr %8, align 8
  %10 = getelementptr inbounds %"class.std::basic_string_view", ptr %7, i32 0, i32 1
  %11 = load ptr, ptr %5, align 8
  store ptr %11, ptr %10, align 8
  ret void
}

; Function Attrs: mustprogress uwtable
define internal void @_ZN12_GLOBAL__N_110json_errorC2ERKNSt7__cxx1112basic_stringIcSt11char_traitsIcESaIcEEESt8optionalINS_4ArgsEE(ptr noundef nonnull align 8 dereferenceable(40) %0, ptr noundef nonnull align 8 dereferenceable(32) %1, ptr noundef byval(%"class.std::optional.192") align 8 %2) unnamed_addr #4 align 2 {
  %4 = alloca ptr, align 8
  %5 = alloca ptr, align 8
  store ptr %0, ptr %4, align 8
  store ptr %1, ptr %5, align 8
  %6 = load ptr, ptr %4, align 8
  %7 = load ptr, ptr %5, align 8
  call void @_ZNSt13runtime_errorC2ERKNSt7__cxx1112basic_stringIcSt11char_traitsIcESaIcEEE(ptr noundef nonnull align 8 dereferenceable(16) %6, ptr noundef nonnull align 8 dereferenceable(32) %7)
  store ptr getelementptr inbounds ({ [5 x ptr] }, ptr @_ZTVN12_GLOBAL__N_110json_errorE, i32 0, i32 0, i32 2), ptr %6, align 8
  %8 = getelementptr inbounds %"class.(anonymous namespace)::json_error", ptr %6, i32 0, i32 1
  call void @llvm.memcpy.p0.p0.i64(ptr align 8 %8, ptr align 8 %2, i64 24, i1 false)
  ret void
}

; Function Attrs: mustprogress nounwind uwtable
define internal void @_ZNSt8optionalIN12_GLOBAL__N_14ArgsEEC2ESt9nullopt_t(ptr noundef nonnull align 8 dereferenceable(24) %0) unnamed_addr #5 align 2 {
  %2 = alloca ptr, align 8
  store ptr %0, ptr %2, align 8
  %3 = load ptr, ptr %2, align 8
  call void @_ZNSt14_Optional_baseIN12_GLOBAL__N_14ArgsELb1ELb1EEC2Ev(ptr noundef nonnull align 8 dereferenceable(24) %3) #3
  ret void
}

; Function Attrs: mustprogress uwtable
define linkonce_odr dso_local { i64, ptr } @_ZN2cmli2_sEPKcm(ptr noundef %0, i64 noundef %1) #4 comdat {
  %3 = alloca %"class.cm::static_string_view", align 8
  %4 = alloca ptr, align 8
  %5 = alloca i64, align 8
  %6 = alloca %"class.std::basic_string_view", align 8
  store ptr %0, ptr %4, align 8
  store i64 %1, ptr %5, align 8
  %7 = load ptr, ptr %4, align 8
  %8 = load i64, ptr %5, align 8
  call void @_ZNSt17basic_string_viewIcSt11char_traitsIcEEC2EPKcm(ptr noundef nonnull align 8 dereferenceable(16) %6, ptr noundef %7, i64 noundef %8) #3
  %9 = getelementptr inbounds { i64, ptr }, ptr %6, i32 0, i32 0
  %10 = load i64, ptr %9, align 8
  %11 = getelementptr inbounds { i64, ptr }, ptr %6, i32 0, i32 1
  %12 = load ptr, ptr %11, align 8
  call void @_ZN2cm18static_string_viewC2ESt17basic_string_viewIcSt11char_traitsIcEE(ptr noundef nonnull align 8 dereferenceable(16) %3, i64 %10, ptr %12)
  %13 = getelementptr inbounds %"class.cm::static_string_view", ptr %3, i32 0, i32 0
  %14 = load { i64, ptr }, ptr %13, align 8
  ret { i64, ptr } %14
}

; Function Attrs: mustprogress uwtable
define internal { i64, ptr } @_ZN12_GLOBAL__N_116JsonTypeToStringEN4Json9ValueTypeE(i32 noundef %0) #4 personality ptr @__gxx_personality_v0 {
  %2 = alloca %"class.std::basic_string_view", align 8
  %3 = alloca i32, align 4
  %4 = alloca %"class.cm::static_string_view", align 8
  %5 = alloca %"class.cm::static_string_view", align 8
  %6 = alloca %"class.cm::static_string_view", align 8
  %7 = alloca %"class.cm::static_string_view", align 8
  %8 = alloca %"class.cm::static_string_view", align 8
  %9 = alloca %"class.cm::static_string_view", align 8
  %10 = alloca %"class.std::__cxx11::basic_string", align 8
  %11 = alloca %"class.std::allocator.0", align 1
  %12 = alloca ptr, align 8
  %13 = alloca i32, align 4
  %14 = alloca %"class.std::optional.192", align 8
  %15 = alloca i1, align 1
  store i32 %0, ptr %3, align 4
  %16 = load i32, ptr %3, align 4
  switch i32 %16, label %59 [
    i32 0, label %17
    i32 1, label %24
    i32 2, label %24
    i32 3, label %24
    i32 4, label %31
    i32 5, label %38
    i32 6, label %45
    i32 7, label %52
  ]

17:                                               ; preds = %1
  %18 = call { i64, ptr } @_ZN2cmli2_sEPKcm(ptr noundef @.str.158, i64 noundef 4)
  %19 = getelementptr inbounds %"class.cm::static_string_view", ptr %4, i32 0, i32 0
  %20 = getelementptr inbounds { i64, ptr }, ptr %19, i32 0, i32 0
  %21 = extractvalue { i64, ptr } %18, 0
  store i64 %21, ptr %20, align 8
  %22 = getelementptr inbounds { i64, ptr }, ptr %19, i32 0, i32 1
  %23 = extractvalue { i64, ptr } %18, 1
  store ptr %23, ptr %22, align 8
  call void @llvm.memcpy.p0.p0.i64(ptr align 8 %2, ptr align 8 %4, i64 16, i1 false)
  br label %75

24:                                               ; preds = %1, %1, %1
  %25 = call { i64, ptr } @_ZN2cmli2_sEPKcm(ptr noundef @.str.159, i64 noundef 6)
  %26 = getelementptr inbounds %"class.cm::static_string_view", ptr %5, i32 0, i32 0
  %27 = getelementptr inbounds { i64, ptr }, ptr %26, i32 0, i32 0
  %28 = extractvalue { i64, ptr } %25, 0
  store i64 %28, ptr %27, align 8
  %29 = getelementptr inbounds { i64, ptr }, ptr %26, i32 0, i32 1
  %30 = extractvalue { i64, ptr } %25, 1
  store ptr %30, ptr %29, align 8
  call void @llvm.memcpy.p0.p0.i64(ptr align 8 %2, ptr align 8 %5, i64 16, i1 false)
  br label %75

31:                                               ; preds = %1
  %32 = call { i64, ptr } @_ZN2cmli2_sEPKcm(ptr noundef @.str.160, i64 noundef 6)
  %33 = getelementptr inbounds %"class.cm::static_string_view", ptr %6, i32 0, i32 0
  %34 = getelementptr inbounds { i64, ptr }, ptr %33, i32 0, i32 0
  %35 = extractvalue { i64, ptr } %32, 0
  store i64 %35, ptr %34, align 8
  %36 = getelementptr inbounds { i64, ptr }, ptr %33, i32 0, i32 1
  %37 = extractvalue { i64, ptr } %32, 1
  store ptr %37, ptr %36, align 8
  call void @llvm.memcpy.p0.p0.i64(ptr align 8 %2, ptr align 8 %6, i64 16, i1 false)
  br label %75

38:                                               ; preds = %1
  %39 = call { i64, ptr } @_ZN2cmli2_sEPKcm(ptr noundef @.str.161, i64 noundef 7)
  %40 = getelementptr inbounds %"class.cm::static_string_view", ptr %7, i32 0, i32 0
  %41 = getelementptr inbounds { i64, ptr }, ptr %40, i32 0, i32 0
  %42 = extractvalue { i64, ptr } %39, 0
  store i64 %42, ptr %41, align 8
  %43 = getelementptr inbounds { i64, ptr }, ptr %40, i32 0, i32 1
  %44 = extractvalue { i64, ptr } %39, 1
  store ptr %44, ptr %43, align 8
  call void @llvm.memcpy.p0.p0.i64(ptr align 8 %2, ptr align 8 %7, i64 16, i1 false)
  br label %75

45:                                               ; preds = %1
  %46 = call { i64, ptr } @_ZN2cmli2_sEPKcm(ptr noundef @.str.162, i64 noundef 5)
  %47 = getelementptr inbounds %"class.cm::static_string_view", ptr %8, i32 0, i32 0
  %48 = getelementptr inbounds { i64, ptr }, ptr %47, i32 0, i32 0
  %49 = extractvalue { i64, ptr } %46, 0
  store i64 %49, ptr %48, align 8
  %50 = getelementptr inbounds { i64, ptr }, ptr %47, i32 0, i32 1
  %51 = extractvalue { i64, ptr } %46, 1
  store ptr %51, ptr %50, align 8
  call void @llvm.memcpy.p0.p0.i64(ptr align 8 %2, ptr align 8 %8, i64 16, i1 false)
  br label %75

52:                                               ; preds = %1
  %53 = call { i64, ptr } @_ZN2cmli2_sEPKcm(ptr noundef @.str.163, i64 noundef 6)
  %54 = getelementptr inbounds %"class.cm::static_string_view", ptr %9, i32 0, i32 0
  %55 = getelementptr inbounds { i64, ptr }, ptr %54, i32 0, i32 0
  %56 = extractvalue { i64, ptr } %53, 0
  store i64 %56, ptr %55, align 8
  %57 = getelementptr inbounds { i64, ptr }, ptr %54, i32 0, i32 1
  %58 = extractvalue { i64, ptr } %53, 1
  store ptr %58, ptr %57, align 8
  call void @llvm.memcpy.p0.p0.i64(ptr align 8 %2, ptr align 8 %9, i64 16, i1 false)
  br label %75

59:                                               ; preds = %1
  store i1 true, ptr %15, align 1
  %60 = call ptr @__cxa_allocate_exception(i64 40) #3
  call void @_ZNSaIcEC1Ev(ptr noundef nonnull align 1 dereferenceable(1) %11) #3
  invoke void @_ZNSt7__cxx1112basic_stringIcSt11char_traitsIcESaIcEEC2IS3_EEPKcRKS3_(ptr noundef nonnull align 8 dereferenceable(32) %10, ptr noundef @.str.164, ptr noundef nonnull align 1 dereferenceable(1) %11)
          to label %61 unwind label %63

61:                                               ; preds = %59
  call void @_ZNSt8optionalIN12_GLOBAL__N_14ArgsEEC2ESt9nullopt_t(ptr noundef nonnull align 8 dereferenceable(24) %14) #3
  invoke void @_ZN12_GLOBAL__N_110json_errorC2ERKNSt7__cxx1112basic_stringIcSt11char_traitsIcESaIcEEESt8optionalINS_4ArgsEE(ptr noundef nonnull align 8 dereferenceable(40) %60, ptr noundef nonnull align 8 dereferenceable(32) %10, ptr noundef byval(%"class.std::optional.192") align 8 %14)
          to label %62 unwind label %67

62:                                               ; preds = %61
  store i1 false, ptr %15, align 1
  invoke void @__cxa_throw(ptr %60, ptr @_ZTIN12_GLOBAL__N_110json_errorE, ptr @_ZN12_GLOBAL__N_110json_errorD2Ev) #15
          to label %82 unwind label %67

63:                                               ; preds = %59
  %64 = landingpad { ptr, i32 }
          cleanup
  %65 = extractvalue { ptr, i32 } %64, 0
  store ptr %65, ptr %12, align 8
  %66 = extractvalue { ptr, i32 } %64, 1
  store i32 %66, ptr %13, align 4
  br label %71

67:                                               ; preds = %62, %61
  %68 = landingpad { ptr, i32 }
          cleanup
  %69 = extractvalue { ptr, i32 } %68, 0
  store ptr %69, ptr %12, align 8
  %70 = extractvalue { ptr, i32 } %68, 1
  store i32 %70, ptr %13, align 4
  call void @_ZNSt7__cxx1112basic_stringIcSt11char_traitsIcESaIcEED1Ev(ptr noundef nonnull align 8 dereferenceable(32) %10) #3
  br label %71

71:                                               ; preds = %67, %63
  call void @_ZNSaIcED1Ev(ptr noundef nonnull align 1 dereferenceable(1) %11) #3
  %72 = load i1, ptr %15, align 1
  br i1 %72, label %73, label %74

73:                                               ; preds = %71
  call void @__cxa_free_exception(ptr %60) #3
  br label %74

74:                                               ; preds = %73, %71
  br label %77

75:                                               ; preds = %52, %45, %38, %31, %24, %17
  %76 = load { i64, ptr }, ptr %2, align 8
  ret { i64, ptr } %76

77:                                               ; preds = %74
  %78 = load ptr, ptr %12, align 8
  %79 = load i32, ptr %13, align 4
  %80 = insertvalue { ptr, i32 } poison, ptr %78, 0
  %81 = insertvalue { ptr, i32 } %80, i32 %79, 1
  resume { ptr, i32 } %81

82:                                               ; preds = %62
  unreachable
}