; Function Attrs: mustprogress uwtable
define internal fastcc { i64, ptr } @_ZN12_GLOBAL__N_116JsonTypeToStringEN4Json9ValueTypeE(i32 noundef %0) unnamed_addr #3 personality ptr @__gxx_personality_v0 {
  %2 = alloca %"class.std::__cxx11::basic_string", align 8
  %3 = alloca %"class.std::allocator.0", align 1
  switch i32 %0, label %9 [
    i32 0, label %17
    i32 1, label %4
    i32 2, label %4
    i32 3, label %4
    i32 4, label %5
    i32 5, label %6
    i32 6, label %7
    i32 7, label %8
  ]

4:                                                ; preds = %1, %1, %1
  br label %17

5:                                                ; preds = %1
  br label %17

6:                                                ; preds = %1
  br label %17

7:                                                ; preds = %1
  br label %17

8:                                                ; preds = %1
  br label %17

9:                                                ; preds = %1
  %10 = tail call ptr @__cxa_allocate_exception(i64 40) #20
  call void @_ZNSaIcEC1Ev(ptr noundef nonnull align 1 dereferenceable(1) %3) #20
  invoke void @_ZNSt7__cxx1112basic_stringIcSt11char_traitsIcESaIcEEC2IS3_EEPKcRKS3_(ptr noundef nonnull align 8 dereferenceable(32) %2, ptr noundef nonnull @.str.164, ptr noundef nonnull align 1 dereferenceable(1) %3)
          to label %11 unwind label %.thread

11:                                               ; preds = %9
  invoke void @_ZNSt13runtime_errorC2ERKNSt7__cxx1112basic_stringIcSt11char_traitsIcESaIcEEE(ptr noundef nonnull align 8 dereferenceable(16) %10, ptr noundef nonnull align 8 dereferenceable(32) %2)
          to label %12 unwind label %14

12:                                               ; preds = %11
  store ptr getelementptr inbounds ({ [5 x ptr] }, ptr @_ZTVN12_GLOBAL__N_110json_errorE, i64 0, i32 0, i64 2), ptr %10, align 8
  %.sroa.4.0..sroa_idx = getelementptr inbounds i8, ptr %10, i64 32
  store i8 0, ptr %.sroa.4.0..sroa_idx, align 8
  invoke void @__cxa_throw(ptr nonnull %10, ptr nonnull @_ZTIN12_GLOBAL__N_110json_errorE, ptr nonnull @_ZN12_GLOBAL__N_110json_errorD2Ev) #21
          to label %19 unwind label %14

.thread:                                          ; preds = %9
  %13 = landingpad { ptr, i32 }
          cleanup
  call void @_ZNSaIcED1Ev(ptr noundef nonnull align 1 dereferenceable(1) %3) #20
  br label %16

14:                                               ; preds = %12, %11
  %.0 = phi i1 [ false, %12 ], [ true, %11 ]
  %15 = landingpad { ptr, i32 }
          cleanup
  call void @_ZNSt7__cxx1112basic_stringIcSt11char_traitsIcESaIcEED1Ev(ptr noundef nonnull align 8 dereferenceable(32) %2) #20
  call void @_ZNSaIcED1Ev(ptr noundef nonnull align 1 dereferenceable(1) %3) #20
  br i1 %.0, label %16, label %18

16:                                               ; preds = %.thread, %14
  %.pn1723 = phi { ptr, i32 } [ %13, %.thread ], [ %15, %14 ]
  call void @__cxa_free_exception(ptr %10) #20
  br label %18

17:                                               ; preds = %1, %8, %7, %6, %5, %4
  %.pn = phi { i64, ptr } [ { i64 6, ptr @.str.163 }, %8 ], [ { i64 5, ptr @.str.162 }, %7 ], [ { i64 7, ptr @.str.161 }, %6 ], [ { i64 6, ptr @.str.160 }, %5 ], [ { i64 6, ptr @.str.159 }, %4 ], [ { i64 4, ptr @.str.158 }, %1 ]
  ret { i64, ptr } %.pn

18:                                               ; preds = %14, %16
  %.pn1722 = phi { ptr, i32 } [ %15, %14 ], [ %.pn1723, %16 ]
  resume { ptr, i32 } %.pn1722

19:                                               ; preds = %12
  unreachable
}